target datalayout = "e-m:e-p270:32:32-p271:32:32-p272:64:64-i64:64-i128:128-f80:128-n8:16:32:64-S128"
target triple = "x86_64-pc-linux-gnu"

%"class.llvm::DwarfExpression" = type { ptr, i8, ptr, %"class.llvm::SmallVector", i64, i32, i16, %"class.std::optional" }
%"class.llvm::SmallVector" = type { %"class.llvm::SmallVectorImpl", %"struct.llvm::SmallVectorStorage" }
%"class.llvm::SmallVectorImpl" = type { %"class.llvm::SmallVectorTemplateBase" }
%"class.llvm::SmallVectorTemplateBase" = type { %"class.llvm::SmallVectorTemplateCommon" }
%"class.llvm::SmallVectorTemplateCommon" = type { %"class.llvm::SmallVectorBase" }
%"class.llvm::SmallVectorBase" = type { ptr, i32, i32 }
%"struct.llvm::SmallVectorStorage" = type { [32 x i8] }
%"class.std::optional" = type { %"struct.std::_Optional_base" }
%"struct.std::_Optional_base" = type { %"struct.std::_Optional_payload" }
%"struct.std::_Optional_payload" = type { %"struct.std::_Optional_payload_base" }
%"struct.std::_Optional_payload_base" = type { %"union.std::_Optional_payload_base<unsigned char>::_Storage", i8 }
%"union.std::_Optional_payload_base<unsigned char>::_Storage" = type { %"struct.std::_Optional_payload_base<unsigned char>::_Empty_byte" }
%"struct.std::_Optional_payload_base<unsigned char>::_Empty_byte" = type { i8 }
%"class.llvm::MachineLocation" = type { i8, i32 }

; Function Attrs: mustprogress nounwind uwtable
define dso_local void @_ZN4llvm15DwarfExpression18setEntryValueFlagsERKNS_15MachineLocationE(ptr noundef nonnull align 8 dereferenceable(88) %0, ptr noundef nonnull align 4 dereferenceable(8) %1) #0 align 2 {
  %3 = alloca ptr, align 8
  %4 = alloca ptr, align 8
  store ptr %0, ptr %3, align 8
  store ptr %1, ptr %4, align 8
  %5 = load ptr, ptr %3, align 8
  %6 = getelementptr inbounds nuw %"class.llvm::DwarfExpression", ptr %5, i32 0, i32 6
  %7 = load i16, ptr %6, align 4
  %8 = lshr i16 %7, 6
  %9 = and i16 %8, 7
  %10 = zext i16 %9 to i32
  %11 = or i32 %10, 1
  %12 = trunc i32 %11 to i16
  %13 = load i16, ptr %6, align 4
  %14 = and i16 %12, 7
  %15 = shl i16 %14, 6
  %16 = and i16 %13, -449
  %17 = or i16 %16, %15
  store i16 %17, ptr %6, align 4
  %18 = load ptr, ptr %4, align 8
  %19 = call noundef zeroext i1 @_ZNK4llvm15MachineLocation10isIndirectEv(ptr noundef nonnull align 4 dereferenceable(8) %18)
  br i1 %19, label %20, label %33

20:                                               ; preds = %2
  %21 = getelementptr inbounds nuw %"class.llvm::DwarfExpression", ptr %5, i32 0, i32 6
  %22 = load i16, ptr %21, align 4
  %23 = lshr i16 %22, 6
  %24 = and i16 %23, 7
  %25 = zext i16 %24 to i32
  %26 = or i32 %25, 2
  %27 = trunc i32 %26 to i16
  %28 = load i16, ptr %21, align 4
  %29 = and i16 %27, 7
  %30 = shl i16 %29, 6
  %31 = and i16 %28, -449
  %32 = or i16 %31, %30
  store i16 %32, ptr %21, align 4
  br label %33

33:                                               ; preds = %20, %2
  ret void
}

; Function Attrs: mustprogress nounwind uwtable
define linkonce_odr hidden void @_ZN4llvm15DwarfExpression21setMemoryLocationKindEv(ptr noundef nonnull align 8 dereferenceable(88) %0) #0 comdat align 2 {
  %2 = alloca ptr, align 8
  store ptr %0, ptr %2, align 8
  %3 = load ptr, ptr %2, align 8
  %4 = getelementptr inbounds nuw %"class.llvm::DwarfExpression", ptr %3, i32 0, i32 6
  %5 = load i16, ptr %4, align 4
  %6 = and i16 %5, -8
  %7 = or i16 %6, 2
  store i16 %7, ptr %4, align 4
  ret void
}

; Function Attrs: mustprogress nounwind uwtable
define linkonce_odr hidden noundef zeroext i1 @_ZNK4llvm15MachineLocation10isIndirectEv(ptr noundef nonnull align 4 dereferenceable(8) %0) #0 comdat align 2 {
  %2 = alloca ptr, align 8
  store ptr %0, ptr %2, align 8
  %3 = load ptr, ptr %2, align 8
  %4 = getelementptr inbounds nuw %"class.llvm::MachineLocation", ptr %3, i32 0, i32 0
  %5 = load i8, ptr %4, align 4
  %6 = trunc i8 %5 to i1
  %7 = xor i1 %6, true
  ret i1 %7
}

; Function Attrs: mustprogress nounwind uwtable
define dso_local void @_ZN4llvm15DwarfExpression11setLocationERKNS_15MachineLocationEPKNS_12DIExpressionE(ptr noundef nonnull align 8 dereferenceable(88) %0, ptr noundef nonnull align 4 dereferenceable(8) %1, ptr noundef %2) #0 align 2 {
  %4 = alloca ptr, align 8
  %5 = alloca ptr, align 8
  %6 = alloca ptr, align 8
  store ptr %0, ptr %4, align 8
  store ptr %1, ptr %5, align 8
  store ptr %2, ptr %6, align 8
  %7 = load ptr, ptr %4, align 8
  %8 = load ptr, ptr %5, align 8
  %9 = call noundef zeroext i1 @_ZNK4llvm15MachineLocation10isIndirectEv(ptr noundef nonnull align 4 dereferenceable(8) %8)
  br i1 %9, label %10, label %11

10:                                               ; preds = %3
  call void @_ZN4llvm15DwarfExpression21setMemoryLocationKindEv(ptr noundef nonnull align 8 dereferenceable(88) %7)
  br label %11

11:                                               ; preds = %10, %3
  %12 = load ptr, ptr %6, align 8
  %13 = call noundef zeroext i1 @_ZNK4llvm12DIExpression12isEntryValueEv(ptr noundef nonnull align 8 dereferenceable(40) %12)
  br i1 %13, label %14, label %16

14:                                               ; preds = %11
  %15 = load ptr, ptr %5, align 8
  call void @_ZN4llvm15DwarfExpression18setEntryValueFlagsERKNS_15MachineLocationE(ptr noundef nonnull align 8 dereferenceable(88) %7, ptr noundef nonnull align 4 dereferenceable(8) %15)
  br label %16

16:                                               ; preds = %14, %11
  ret void
}