; Function Attrs: mustprogress nounwind uwtable
define dso_local void @_ZN4llvm15DwarfExpression11setLocationERKNS_15MachineLocationEPKNS_12DIExpressionE(ptr nocapture noundef nonnull align 8 dereferenceable(88) %0, ptr nocapture noundef nonnull readonly align 4 dereferenceable(8) %1, ptr noundef %2) local_unnamed_addr #0 align 2 {
  %4 = load i8, ptr %1, align 4
  %5 = trunc i8 %4 to i1
  br i1 %5, label %11, label %6

6:                                                ; preds = %3
  %7 = getelementptr inbounds nuw i8, ptr %0, i64 84
  %8 = load i16, ptr %7, align 4
  %9 = and i16 %8, -8
  %10 = or disjoint i16 %9, 2
  store i16 %10, ptr %7, align 4
  br label %11

11:                                               ; preds = %6, %3
  %12 = tail call noundef zeroext i1 @_ZNK4llvm12DIExpression12isEntryValueEv(ptr noundef nonnull align 8 dereferenceable(40) %2) #13
  br i1 %12, label %13, label %_ZN4llvm15DwarfExpression18setEntryValueFlagsERKNS_15MachineLocationE.exit

13:                                               ; preds = %11
  %14 = getelementptr inbounds nuw i8, ptr %0, i64 84
  %15 = load i16, ptr %14, align 4
  %16 = or i16 %15, 64
  store i16 %16, ptr %14, align 4
  %17 = load i8, ptr %1, align 4
  %18 = trunc i8 %17 to i1
  br i1 %18, label %_ZN4llvm15DwarfExpression18setEntryValueFlagsERKNS_15MachineLocationE.exit, label %19

19:                                               ; preds = %13
  %20 = or i16 %15, 192
  store i16 %20, ptr %14, align 4
  br label %_ZN4llvm15DwarfExpression18setEntryValueFlagsERKNS_15MachineLocationE.exit

_ZN4llvm15DwarfExpression18setEntryValueFlagsERKNS_15MachineLocationE.exit: ; preds = %19, %13, %11
  ret void
}